; Function Attrs: mustprogress uwtable
define dso_local void @_ZNK11cmCMakePath13GetNarrowStemEv(ptr dead_on_unwind noalias writable sret(%class.cmCMakePath) align 8 %0, ptr noundef nonnull align 8 dereferenceable(40) %1) local_unnamed_addr #0 align 2 personality ptr @__gxx_personality_v0 {
  %3 = alloca %"class.std::allocator", align 1
  %4 = alloca %"class.std::__cxx11::basic_string", align 8
  %5 = alloca %"class.std::filesystem::__cxx11::path", align 8
  %6 = alloca %"class.std::__cxx11::basic_string", align 8
  %7 = alloca %"class.std::__cxx11::basic_string", align 8
  call void @_ZNKSt10filesystem7__cxx114path4stemEv(ptr dead_on_unwind nonnull writable sret(%"class.std::filesystem::__cxx11::path") align 8 %5, ptr noundef nonnull align 8 dereferenceable(40) %1)
  call void @llvm.lifetime.start.p0(i64 1, ptr nonnull %3)
  call void @_ZNSaIcEC1Ev(ptr noundef nonnull align 1 dereferenceable(1) %3) #10, !noalias !20
  %8 = call noundef ptr @_ZNKSt7__cxx1112basic_stringIcSt11char_traitsIcESaIcEE5c_strEv(ptr noundef nonnull align 8 dereferenceable(32) %5) #10, !noalias !23
  %9 = call noundef i64 @_ZNKSt7__cxx1112basic_stringIcSt11char_traitsIcESaIcEE6lengthEv(ptr noundef nonnull align 8 dereferenceable(32) %5) #10, !noalias !23
  invoke void @_ZNSt7__cxx1112basic_stringIcSt11char_traitsIcESaIcEEC1EPKcmRKS3_(ptr noundef nonnull align 8 dereferenceable(32) %4, ptr noundef %8, i64 noundef %9, ptr noundef nonnull align 1 dereferenceable(1) %3)
          to label %11 unwind label %.body

.body:                                            ; preds = %2
  %10 = landingpad { ptr, i32 }
          cleanup
  call void @_ZNSaIcED1Ev(ptr noundef nonnull align 1 dereferenceable(1) %3) #10
  call void @_ZNSt10filesystem7__cxx114pathD2Ev(ptr noundef nonnull align 8 dereferenceable(40) %5) #10
  br label %34

11:                                               ; preds = %2
  call void @_ZNSaIcED1Ev(ptr noundef nonnull align 1 dereferenceable(1) %3) #10
  call void @llvm.lifetime.end.p0(i64 1, ptr nonnull %3)
  %12 = getelementptr inbounds i8, ptr %5, i64 32
  %13 = load ptr, ptr %12, align 8
  %.not.i.i.i = icmp eq ptr %13, null
  br i1 %.not.i.i.i, label %_ZNSt10filesystem7__cxx114pathD2Ev.exit, label %14

14:                                               ; preds = %11
  call void @_ZNKSt10filesystem7__cxx114path5_List13_Impl_deleterclEPNS2_5_ImplE(ptr noundef nonnull align 1 dereferenceable(1) %12, ptr noundef nonnull %13) #10
  br label %_ZNSt10filesystem7__cxx114pathD2Ev.exit

_ZNSt10filesystem7__cxx114pathD2Ev.exit:          ; preds = %11, %14
  store ptr null, ptr %12, align 8
  call void @_ZNSt7__cxx1112basic_stringIcSt11char_traitsIcESaIcEED1Ev(ptr noundef nonnull align 8 dereferenceable(32) %5) #10
  %15 = call noundef zeroext i1 @_ZNKSt7__cxx1112basic_stringIcSt11char_traitsIcESaIcEE5emptyEv(ptr noundef nonnull align 8 dereferenceable(32) %4) #10
  br i1 %15, label %29, label %16

16:                                               ; preds = %_ZNSt10filesystem7__cxx114pathD2Ev.exit
  %17 = invoke noundef nonnull align 1 dereferenceable(1) ptr @_ZNSt7__cxx1112basic_stringIcSt11char_traitsIcESaIcEEixEm(ptr noundef nonnull align 8 dereferenceable(32) %4, i64 noundef 0)
          to label %18 unwind label %25

18:                                               ; preds = %16
  %19 = load i8, ptr %17, align 1
  %20 = icmp eq i8 %19, 46
  %21 = zext i1 %20 to i64
  %22 = call noundef i64 @_ZNKSt7__cxx1112basic_stringIcSt11char_traitsIcESaIcEE4findEcm(ptr noundef nonnull align 8 dereferenceable(32) %4, i8 noundef signext 46, i64 noundef %21) #10
  %.not = icmp eq i64 %22, -1
  br i1 %.not, label %29, label %23

23:                                               ; preds = %18
  invoke void @_ZNKSt7__cxx1112basic_stringIcSt11char_traitsIcESaIcEE6substrEmm(ptr dead_on_unwind nonnull writable sret(%"class.std::__cxx11::basic_string") align 8 %6, ptr noundef nonnull align 8 dereferenceable(32) %4, i64 noundef 0, i64 noundef %22)
          to label %24 unwind label %25

24:                                               ; preds = %23
  invoke void @_ZN11cmCMakePathC2INSt7__cxx1112basic_stringIcSt11char_traitsIcESaIcEEERS_EET_NS_6formatE(ptr noundef nonnull align 8 dereferenceable(40) %0, ptr noundef nonnull %6, i8 noundef zeroext 1)
          to label %32 unwind label %27

25:                                               ; preds = %23, %16
  %26 = landingpad { ptr, i32 }
          cleanup
  br label %33

27:                                               ; preds = %24
  %28 = landingpad { ptr, i32 }
          cleanup
  call void @_ZNSt7__cxx1112basic_stringIcSt11char_traitsIcESaIcEED1Ev(ptr noundef nonnull align 8 dereferenceable(32) %6) #10
  br label %33

29:                                               ; preds = %18, %_ZNSt10filesystem7__cxx114pathD2Ev.exit
  call void @_ZNSt7__cxx1112basic_stringIcSt11char_traitsIcESaIcEEC1EOS4_(ptr noundef nonnull align 8 dereferenceable(32) %7, ptr noundef nonnull align 8 dereferenceable(32) %4) #10
  invoke void @_ZN11cmCMakePathC2INSt7__cxx1112basic_stringIcSt11char_traitsIcESaIcEEERS_EET_NS_6formatE(ptr noundef nonnull align 8 dereferenceable(40) %0, ptr noundef nonnull %7, i8 noundef zeroext 1)
          to label %32 unwind label %30

30:                                               ; preds = %29
  %31 = landingpad { ptr, i32 }
          cleanup
  call void @_ZNSt7__cxx1112basic_stringIcSt11char_traitsIcESaIcEED1Ev(ptr noundef nonnull align 8 dereferenceable(32) %7) #10
  br label %33

32:                                               ; preds = %29, %24
  %.sink = phi ptr [ %6, %24 ], [ %7, %29 ]
  call void @_ZNSt7__cxx1112basic_stringIcSt11char_traitsIcESaIcEED1Ev(ptr noundef nonnull align 8 dereferenceable(32) %.sink) #10
  call void @_ZNSt7__cxx1112basic_stringIcSt11char_traitsIcESaIcEED1Ev(ptr noundef nonnull align 8 dereferenceable(32) %4) #10
  ret void

33:                                               ; preds = %30, %27, %25
  %.pn = phi { ptr, i32 } [ %31, %30 ], [ %28, %27 ], [ %26, %25 ]
  call void @_ZNSt7__cxx1112basic_stringIcSt11char_traitsIcESaIcEED1Ev(ptr noundef nonnull align 8 dereferenceable(32) %4) #10
  br label %34

34:                                               ; preds = %33, %.body
  %.pn.pn = phi { ptr, i32 } [ %.pn, %33 ], [ %10, %.body ]
  resume { ptr, i32 } %.pn.pn
}